target datalayout = "e-m:e-p270:32:32-p271:32:32-p272:64:64-i64:64-i128:128-f80:128-n8:16:32:64-S128"
target triple = "x86_64-pc-linux-gnu"

%struct.prov_cipher_ctx_st = type { [16 x i8], [16 x i8], [16 x i8], ptr, %union.anon, i32, i64, i64, i64, i64, i32, i8, i32, ptr, i32, i64, i32, i64, i32, ptr, ptr, ptr }
%union.anon = type { ptr }
%union.aligned_16bytes = type { i64, [8 x i8] }
%struct.prov_cipher_hw_st = type { ptr, ptr, ptr }

; Function Attrs: nounwind uwtable
define internal void @do_xor(ptr noundef %0, ptr noundef %1, i64 noundef %2, ptr noundef %3) #0 {
  %5 = alloca ptr, align 8
  %6 = alloca ptr, align 8
  %7 = alloca i64, align 8
  %8 = alloca ptr, align 8
  %9 = alloca i64, align 8
  store ptr %0, ptr %5, align 8, !tbaa !16
  store ptr %1, ptr %6, align 8, !tbaa !16
  store i64 %2, ptr %7, align 8, !tbaa !7
  store ptr %3, ptr %8, align 8, !tbaa !16
  call void @llvm.lifetime.start.p0(i64 8, ptr %9) #5
  store i64 0, ptr %9, align 8, !tbaa !7
  br label %10

10:                                               ; preds = %30, %4
  %11 = load i64, ptr %9, align 8, !tbaa !7
  %12 = load i64, ptr %7, align 8, !tbaa !7
  %13 = icmp ult i64 %11, %12
  br i1 %13, label %14, label %33

14:                                               ; preds = %10
  %15 = load ptr, ptr %5, align 8, !tbaa !16
  %16 = load i64, ptr %9, align 8, !tbaa !7
  %17 = getelementptr inbounds nuw i8, ptr %15, i64 %16
  %18 = load i8, ptr %17, align 1, !tbaa !30
  %19 = zext i8 %18 to i32
  %20 = load ptr, ptr %6, align 8, !tbaa !16
  %21 = load i64, ptr %9, align 8, !tbaa !7
  %22 = getelementptr inbounds nuw i8, ptr %20, i64 %21
  %23 = load i8, ptr %22, align 1, !tbaa !30
  %24 = zext i8 %23 to i32
  %25 = xor i32 %19, %24
  %26 = trunc i32 %25 to i8
  %27 = load ptr, ptr %8, align 8, !tbaa !16
  %28 = load i64, ptr %9, align 8, !tbaa !7
  %29 = getelementptr inbounds nuw i8, ptr %27, i64 %28
  store i8 %26, ptr %29, align 1, !tbaa !30
  br label %30

30:                                               ; preds = %14
  %31 = load i64, ptr %9, align 8, !tbaa !7
  %32 = add i64 %31, 1
  store i64 %32, ptr %9, align 8, !tbaa !7
  br label %10, !llvm.loop !31

33:                                               ; preds = %10
  call void @llvm.lifetime.end.p0(i64 8, ptr %9) #5
  ret void
}

; Function Attrs: nounwind uwtable
define internal i64 @cts128_cs1_decrypt(ptr noundef %0, ptr noundef %1, ptr noundef %2, i64 noundef %3) #0 {
  %5 = alloca i64, align 8
  %6 = alloca ptr, align 8
  %7 = alloca ptr, align 8
  %8 = alloca ptr, align 8
  %9 = alloca i64, align 8
  %10 = alloca %union.aligned_16bytes, align 8
  %11 = alloca %union.aligned_16bytes, align 8
  %12 = alloca %union.aligned_16bytes, align 8
  %13 = alloca %union.aligned_16bytes, align 8
  %14 = alloca i64, align 8
  %15 = alloca i32, align 4
  store ptr %0, ptr %6, align 8, !tbaa !21
  store ptr %1, ptr %7, align 8, !tbaa !16
  store ptr %2, ptr %8, align 8, !tbaa !16
  store i64 %3, ptr %9, align 8, !tbaa !7
  call void @llvm.lifetime.start.p0(i64 16, ptr %10) #5
  call void @llvm.lifetime.start.p0(i64 16, ptr %11) #5
  call void @llvm.lifetime.start.p0(i64 16, ptr %12) #5
  call void @llvm.lifetime.start.p0(i64 16, ptr %13) #5
  call void @llvm.lifetime.start.p0(i64 8, ptr %14) #5
  %16 = load i64, ptr %9, align 8, !tbaa !7
  %17 = urem i64 %16, 16
  store i64 %17, ptr %14, align 8, !tbaa !7
  %18 = load i64, ptr %14, align 8, !tbaa !7
  %19 = icmp eq i64 %18, 0
  br i1 %19, label %20, label %35

20:                                               ; preds = %4
  %21 = load ptr, ptr %6, align 8, !tbaa !21
  %22 = getelementptr inbounds nuw %struct.prov_cipher_ctx_st, ptr %21, i32 0, i32 19
  %23 = load ptr, ptr %22, align 8, !tbaa !27
  %24 = getelementptr inbounds nuw %struct.prov_cipher_hw_st, ptr %23, i32 0, i32 1
  %25 = load ptr, ptr %24, align 8, !tbaa !28
  %26 = load ptr, ptr %6, align 8, !tbaa !21
  %27 = load ptr, ptr %8, align 8, !tbaa !16
  %28 = load ptr, ptr %7, align 8, !tbaa !16
  %29 = load i64, ptr %9, align 8, !tbaa !7
  %30 = call i32 %25(ptr noundef %26, ptr noundef %27, ptr noundef %28, i64 noundef %29)
  %31 = icmp ne i32 %30, 0
  br i1 %31, label %33, label %32

32:                                               ; preds = %20
  store i64 0, ptr %5, align 8
  store i32 1, ptr %15, align 4
  br label %128

33:                                               ; preds = %20
  %34 = load i64, ptr %9, align 8, !tbaa !7
  store i64 %34, ptr %5, align 8
  store i32 1, ptr %15, align 4
  br label %128

35:                                               ; preds = %4
  %36 = load i64, ptr %14, align 8, !tbaa !7
  %37 = add i64 16, %36
  %38 = load i64, ptr %9, align 8, !tbaa !7
  %39 = sub i64 %38, %37
  store i64 %39, ptr %9, align 8, !tbaa !7
  %40 = load i64, ptr %9, align 8, !tbaa !7
  %41 = icmp ugt i64 %40, 0
  br i1 %41, label %42, label %62

42:                                               ; preds = %35
  %43 = load ptr, ptr %6, align 8, !tbaa !21
  %44 = getelementptr inbounds nuw %struct.prov_cipher_ctx_st, ptr %43, i32 0, i32 19
  %45 = load ptr, ptr %44, align 8, !tbaa !27
  %46 = getelementptr inbounds nuw %struct.prov_cipher_hw_st, ptr %45, i32 0, i32 1
  %47 = load ptr, ptr %46, align 8, !tbaa !28
  %48 = load ptr, ptr %6, align 8, !tbaa !21
  %49 = load ptr, ptr %8, align 8, !tbaa !16
  %50 = load ptr, ptr %7, align 8, !tbaa !16
  %51 = load i64, ptr %9, align 8, !tbaa !7
  %52 = call i32 %47(ptr noundef %48, ptr noundef %49, ptr noundef %50, i64 noundef %51)
  %53 = icmp ne i32 %52, 0
  br i1 %53, label %55, label %54

54:                                               ; preds = %42
  store i64 0, ptr %5, align 8
  store i32 1, ptr %15, align 4
  br label %128

55:                                               ; preds = %42
  %56 = load i64, ptr %9, align 8, !tbaa !7
  %57 = load ptr, ptr %7, align 8, !tbaa !16
  %58 = getelementptr inbounds nuw i8, ptr %57, i64 %56
  store ptr %58, ptr %7, align 8, !tbaa !16
  %59 = load i64, ptr %9, align 8, !tbaa !7
  %60 = load ptr, ptr %8, align 8, !tbaa !16
  %61 = getelementptr inbounds nuw i8, ptr %60, i64 %59
  store ptr %61, ptr %8, align 8, !tbaa !16
  br label %62

62:                                               ; preds = %55, %35
  %63 = getelementptr inbounds [16 x i8], ptr %10, i64 0, i64 0
  %64 = load ptr, ptr %6, align 8, !tbaa !21
  %65 = getelementptr inbounds nuw %struct.prov_cipher_ctx_st, ptr %64, i32 0, i32 2
  %66 = getelementptr inbounds [16 x i8], ptr %65, i64 0, i64 0
  call void @llvm.memcpy.p0.p0.i64(ptr align 8 %63, ptr align 8 %66, i64 16, i1 false)
  %67 = getelementptr inbounds [16 x i8], ptr %12, i64 0, i64 0
  %68 = load ptr, ptr %7, align 8, !tbaa !16
  %69 = load i64, ptr %14, align 8, !tbaa !7
  %70 = getelementptr inbounds nuw i8, ptr %68, i64 %69
  call void @llvm.memcpy.p0.p0.i64(ptr align 8 %67, ptr align 1 %70, i64 16, i1 false)
  %71 = load ptr, ptr %6, align 8, !tbaa !21
  %72 = getelementptr inbounds nuw %struct.prov_cipher_ctx_st, ptr %71, i32 0, i32 2
  %73 = getelementptr inbounds [16 x i8], ptr %72, i64 0, i64 0
  call void @llvm.memset.p0.i64(ptr align 8 %73, i8 0, i64 16, i1 false)
  %74 = load ptr, ptr %6, align 8, !tbaa !21
  %75 = getelementptr inbounds nuw %struct.prov_cipher_ctx_st, ptr %74, i32 0, i32 19
  %76 = load ptr, ptr %75, align 8, !tbaa !27
  %77 = getelementptr inbounds nuw %struct.prov_cipher_hw_st, ptr %76, i32 0, i32 1
  %78 = load ptr, ptr %77, align 8, !tbaa !28
  %79 = load ptr, ptr %6, align 8, !tbaa !21
  %80 = getelementptr inbounds [16 x i8], ptr %13, i64 0, i64 0
  %81 = load ptr, ptr %7, align 8, !tbaa !16
  %82 = load i64, ptr %14, align 8, !tbaa !7
  %83 = getelementptr inbounds nuw i8, ptr %81, i64 %82
  %84 = call i32 %78(ptr noundef %79, ptr noundef %80, ptr noundef %83, i64 noundef 16)
  %85 = icmp ne i32 %84, 0
  br i1 %85, label %87, label %86

86:                                               ; preds = %62
  store i64 0, ptr %5, align 8
  store i32 1, ptr %15, align 4
  br label %128

87:                                               ; preds = %62
  %88 = getelementptr inbounds [16 x i8], ptr %11, i64 0, i64 0
  %89 = load ptr, ptr %7, align 8, !tbaa !16
  %90 = load i64, ptr %14, align 8, !tbaa !7
  call void @llvm.memcpy.p0.p0.i64(ptr align 8 %88, ptr align 1 %89, i64 %90, i1 false)
  %91 = getelementptr inbounds [16 x i8], ptr %11, i64 0, i64 0
  %92 = load i64, ptr %14, align 8, !tbaa !7
  %93 = getelementptr inbounds nuw i8, ptr %91, i64 %92
  %94 = getelementptr inbounds [16 x i8], ptr %13, i64 0, i64 0
  %95 = load i64, ptr %14, align 8, !tbaa !7
  %96 = getelementptr inbounds nuw i8, ptr %94, i64 %95
  %97 = load i64, ptr %14, align 8, !tbaa !7
  %98 = sub i64 16, %97
  call void @llvm.memcpy.p0.p0.i64(ptr align 1 %93, ptr align 1 %96, i64 %98, i1 false)
  %99 = getelementptr inbounds [16 x i8], ptr %11, i64 0, i64 0
  %100 = getelementptr inbounds [16 x i8], ptr %13, i64 0, i64 0
  %101 = load i64, ptr %14, align 8, !tbaa !7
  %102 = load ptr, ptr %8, align 8, !tbaa !16
  %103 = getelementptr inbounds i8, ptr %102, i64 16
  call void @do_xor(ptr noundef %99, ptr noundef %100, i64 noundef %101, ptr noundef %103)
  %104 = load ptr, ptr %6, align 8, !tbaa !21
  %105 = getelementptr inbounds nuw %struct.prov_cipher_ctx_st, ptr %104, i32 0, i32 2
  %106 = getelementptr inbounds [16 x i8], ptr %105, i64 0, i64 0
  %107 = getelementptr inbounds [16 x i8], ptr %10, i64 0, i64 0
  call void @llvm.memcpy.p0.p0.i64(ptr align 8 %106, ptr align 8 %107, i64 16, i1 false)
  %108 = load ptr, ptr %6, align 8, !tbaa !21
  %109 = getelementptr inbounds nuw %struct.prov_cipher_ctx_st, ptr %108, i32 0, i32 19
  %110 = load ptr, ptr %109, align 8, !tbaa !27
  %111 = getelementptr inbounds nuw %struct.prov_cipher_hw_st, ptr %110, i32 0, i32 1
  %112 = load ptr, ptr %111, align 8, !tbaa !28
  %113 = load ptr, ptr %6, align 8, !tbaa !21
  %114 = load ptr, ptr %8, align 8, !tbaa !16
  %115 = getelementptr inbounds [16 x i8], ptr %11, i64 0, i64 0
  %116 = call i32 %112(ptr noundef %113, ptr noundef %114, ptr noundef %115, i64 noundef 16)
  %117 = icmp ne i32 %116, 0
  br i1 %117, label %119, label %118

118:                                              ; preds = %87
  store i64 0, ptr %5, align 8
  store i32 1, ptr %15, align 4
  br label %128

119:                                              ; preds = %87
  %120 = load ptr, ptr %6, align 8, !tbaa !21
  %121 = getelementptr inbounds nuw %struct.prov_cipher_ctx_st, ptr %120, i32 0, i32 2
  %122 = getelementptr inbounds [16 x i8], ptr %121, i64 0, i64 0
  %123 = getelementptr inbounds [16 x i8], ptr %12, i64 0, i64 0
  call void @llvm.memcpy.p0.p0.i64(ptr align 8 %122, ptr align 8 %123, i64 16, i1 false)
  %124 = load i64, ptr %9, align 8, !tbaa !7
  %125 = add i64 %124, 16
  %126 = load i64, ptr %14, align 8, !tbaa !7
  %127 = add i64 %125, %126
  store i64 %127, ptr %5, align 8
  store i32 1, ptr %15, align 4
  br label %128

128:                                              ; preds = %119, %118, %86, %54, %33, %32
  call void @llvm.lifetime.end.p0(i64 8, ptr %14) #5
  call void @llvm.lifetime.end.p0(i64 16, ptr %13) #5
  call void @llvm.lifetime.end.p0(i64 16, ptr %12) #5
  call void @llvm.lifetime.end.p0(i64 16, ptr %11) #5
  call void @llvm.lifetime.end.p0(i64 16, ptr %10) #5
  %129 = load i64, ptr %5, align 8
  ret i64 %129
}