; Function Attrs: nounwind uwtable
define internal fastcc range(i64 16, 1) i64 @cts128_cs1_decrypt(ptr noundef %0, ptr noundef %1, ptr noundef nonnull %2, i64 noundef range(i64 16, 0) %3) unnamed_addr #2 {
  %5 = alloca %union.aligned_16bytes, align 8
  %6 = alloca %union.aligned_16bytes, align 8
  %7 = alloca %union.aligned_16bytes, align 8
  %8 = alloca %union.aligned_16bytes, align 8
  call void @llvm.lifetime.start.p0(i64 16, ptr nonnull %5)
  call void @llvm.lifetime.start.p0(i64 16, ptr nonnull %6) #7
  call void @llvm.lifetime.start.p0(i64 16, ptr nonnull %7)
  call void @llvm.lifetime.start.p0(i64 16, ptr nonnull %8) #7
  %9 = and i64 %3, 15
  %10 = icmp eq i64 %9, 0
  br i1 %10, label %11, label %17

11:                                               ; preds = %4
  %12 = getelementptr inbounds nuw i8, ptr %0, i64 168
  %13 = load ptr, ptr %12, align 8, !tbaa !20
  %14 = getelementptr inbounds nuw i8, ptr %13, i64 8
  %15 = load ptr, ptr %14, align 8, !tbaa !21
  %16 = tail call i32 %15(ptr noundef %0, ptr noundef nonnull %2, ptr noundef %1, i64 noundef %3) #7
  %.not49 = icmp eq i32 %16, 0
  %. = select i1 %.not49, i64 0, i64 %3
  br label %54

17:                                               ; preds = %4
  %18 = or disjoint i64 %9, 16
  %19 = sub i64 %3, %18
  %.not = icmp eq i64 %3, %18
  br i1 %.not, label %29, label %20

20:                                               ; preds = %17
  %21 = getelementptr inbounds nuw i8, ptr %0, i64 168
  %22 = load ptr, ptr %21, align 8, !tbaa !20
  %23 = getelementptr inbounds nuw i8, ptr %22, i64 8
  %24 = load ptr, ptr %23, align 8, !tbaa !21
  %25 = tail call i32 %24(ptr noundef %0, ptr noundef nonnull %2, ptr noundef %1, i64 noundef %19) #7
  %.not46 = icmp eq i32 %25, 0
  br i1 %.not46, label %54, label %26

26:                                               ; preds = %20
  %27 = getelementptr inbounds nuw i8, ptr %1, i64 %19
  %28 = getelementptr inbounds nuw i8, ptr %2, i64 %19
  br label %29

29:                                               ; preds = %26, %17
  %.043 = phi ptr [ %27, %26 ], [ %1, %17 ]
  %.042 = phi ptr [ %28, %26 ], [ %2, %17 ]
  %30 = getelementptr inbounds nuw i8, ptr %0, i64 32
  call void @llvm.memcpy.p0.p0.i64(ptr noundef nonnull align 8 dereferenceable(16) %5, ptr noundef nonnull align 8 dereferenceable(16) %30, i64 16, i1 false)
  %31 = getelementptr inbounds nuw i8, ptr %.043, i64 %9
  call void @llvm.memcpy.p0.p0.i64(ptr noundef nonnull align 8 dereferenceable(16) %7, ptr noundef nonnull align 1 dereferenceable(16) %31, i64 16, i1 false)
  tail call void @llvm.memset.p0.i64(ptr noundef nonnull align 8 dereferenceable(16) %30, i8 0, i64 16, i1 false)
  %32 = getelementptr inbounds nuw i8, ptr %0, i64 168
  %33 = load ptr, ptr %32, align 8, !tbaa !20
  %34 = getelementptr inbounds nuw i8, ptr %33, i64 8
  %35 = load ptr, ptr %34, align 8, !tbaa !21
  %36 = call i32 %35(ptr noundef %0, ptr noundef nonnull %8, ptr noundef nonnull %31, i64 noundef 16) #7
  %.not47 = icmp eq i32 %36, 0
  br i1 %.not47, label %54, label %37

37:                                               ; preds = %29
  call void @llvm.memcpy.p0.p0.i64(ptr nonnull align 8 %6, ptr nonnull align 1 %.043, i64 %9, i1 false)
  %38 = getelementptr inbounds nuw i8, ptr %6, i64 %9
  %39 = getelementptr inbounds nuw i8, ptr %8, i64 %9
  %40 = sub nuw nsw i64 16, %9
  call void @llvm.memcpy.p0.p0.i64(ptr noundef nonnull align 1 dereferenceable(1) %38, ptr noundef nonnull align 1 dereferenceable(1) %39, i64 %40, i1 false)
  %41 = getelementptr inbounds nuw i8, ptr %.042, i64 16
  br label %.lr.ph.i

.lr.ph.i:                                         ; preds = %37, %.lr.ph.i
  %.08.i = phi i64 [ %48, %.lr.ph.i ], [ 0, %37 ]
  %42 = getelementptr inbounds nuw i8, ptr %6, i64 %.08.i
  %43 = load i8, ptr %42, align 1, !tbaa !23
  %44 = getelementptr inbounds nuw i8, ptr %8, i64 %.08.i
  %45 = load i8, ptr %44, align 1, !tbaa !23
  %46 = xor i8 %45, %43
  %47 = getelementptr inbounds nuw i8, ptr %41, i64 %.08.i
  store i8 %46, ptr %47, align 1, !tbaa !23
  %48 = add nuw nsw i64 %.08.i, 1
  %exitcond.not.i = icmp eq i64 %48, %9
  br i1 %exitcond.not.i, label %do_xor.exit, label %.lr.ph.i, !llvm.loop !24

do_xor.exit:                                      ; preds = %.lr.ph.i
  call void @llvm.memcpy.p0.p0.i64(ptr noundef nonnull align 8 dereferenceable(16) %30, ptr noundef nonnull align 8 dereferenceable(16) %5, i64 16, i1 false)
  %49 = load ptr, ptr %32, align 8, !tbaa !20
  %50 = getelementptr inbounds nuw i8, ptr %49, i64 8
  %51 = load ptr, ptr %50, align 8, !tbaa !21
  %52 = call i32 %51(ptr noundef %0, ptr noundef nonnull %.042, ptr noundef nonnull %6, i64 noundef 16) #7
  %.not48 = icmp eq i32 %52, 0
  br i1 %.not48, label %54, label %53

53:                                               ; preds = %do_xor.exit
  call void @llvm.memcpy.p0.p0.i64(ptr noundef nonnull align 8 dereferenceable(16) %30, ptr noundef nonnull align 8 dereferenceable(16) %7, i64 16, i1 false)
  br label %54

54:                                               ; preds = %do_xor.exit, %29, %20, %11, %53
  %.0 = phi i64 [ %3, %53 ], [ %., %11 ], [ 0, %20 ], [ 0, %29 ], [ 0, %do_xor.exit ]
  call void @llvm.lifetime.end.p0(i64 16, ptr nonnull %8) #7
  call void @llvm.lifetime.end.p0(i64 16, ptr nonnull %7)
  call void @llvm.lifetime.end.p0(i64 16, ptr nonnull %6) #7
  call void @llvm.lifetime.end.p0(i64 16, ptr nonnull %5)
  ret i64 %.0
}